target datalayout = "e-m:e-p270:32:32-p271:32:32-p272:64:64-i64:64-i128:128-f80:128-n8:16:32:64-S128"
target triple = "x86_64-pc-linux-gnu"

%struct.Abc_Obj_t_ = type { ptr, ptr, i32, i32, %struct.Vec_Int_t_, %struct.Vec_Int_t_, %union.anon.1, %union.anon.2 }
%struct.Vec_Int_t_ = type { i32, i32, ptr }
%union.anon.1 = type { ptr }
%union.anon.2 = type { ptr }
%struct.Vec_Ptr_t_ = type { i32, i32, ptr }
%struct.Abc_Ntk_t_ = type { i32, i32, ptr, ptr, ptr, ptr, ptr, ptr, ptr, ptr, ptr, ptr, ptr, [11 x i32], i32, i32, i32, i32, ptr, i32, ptr, ptr, i32, i32, i32, double, i32, %struct.Vec_Int_t_, ptr, ptr, ptr, ptr, ptr, float, i32, ptr, ptr, ptr, ptr, ptr, ptr, ptr, ptr, ptr, ptr, ptr, ptr, ptr, ptr, ptr, ptr, ptr, ptr, ptr, ptr, ptr }

@.str.103 = private unnamed_addr constant [61 x i8] c"Currently works only for networks with equal number of POs.\0A\00", align 1
@timeCnf = global i64 0, align 8
@timeSat = global i64 0, align 8
@timeInt = global i64 0, align 8
@.str.104 = private unnamed_addr constant [50 x i8] c"Abc_NtkAttachBottom(): Network check has failed.\0A\00", align 1

; Function Attrs: nounwind uwtable
define internal ptr @Vec_PtrEntry(ptr noundef %0, i32 noundef %1) #0 {
  %3 = alloca ptr, align 8
  %4 = alloca i32, align 4
  store ptr %0, ptr %3, align 8
  store i32 %1, ptr %4, align 4
  %5 = load ptr, ptr %3, align 8
  %6 = getelementptr inbounds %struct.Vec_Ptr_t_, ptr %5, i32 0, i32 2
  %7 = load ptr, ptr %6, align 8
  %8 = load i32, ptr %4, align 4
  %9 = sext i32 %8 to i64
  %10 = getelementptr inbounds ptr, ptr %7, i64 %9
  %11 = load ptr, ptr %10, align 8
  ret ptr %11
}

; Function Attrs: nounwind uwtable
define internal i32 @Vec_PtrSize(ptr noundef %0) #0 {
  %2 = alloca ptr, align 8
  store ptr %0, ptr %2, align 8
  %3 = load ptr, ptr %2, align 8
  %4 = getelementptr inbounds %struct.Vec_Ptr_t_, ptr %3, i32 0, i32 1
  %5 = load i32, ptr %4, align 4
  ret i32 %5
}

; Function Attrs: nounwind uwtable
define internal i32 @Abc_NtkNodeNum(ptr noundef %0) #0 {
  %2 = alloca ptr, align 8
  store ptr %0, ptr %2, align 8
  %3 = load ptr, ptr %2, align 8
  %4 = getelementptr inbounds %struct.Abc_Ntk_t_, ptr %3, i32 0, i32 13
  %5 = getelementptr inbounds [11 x i32], ptr %4, i64 0, i64 7
  %6 = load i32, ptr %5, align 4
  ret i32 %6
}

; Function Attrs: nounwind uwtable
define internal void @Abc_ObjXorFaninC(ptr noundef %0, i32 noundef %1) #0 {
  %3 = alloca ptr, align 8
  %4 = alloca i32, align 4
  store ptr %0, ptr %3, align 8
  store i32 %1, ptr %4, align 4
  %5 = load i32, ptr %4, align 4
  %6 = icmp ne i32 %5, 0
  br i1 %6, label %7, label %19

7:                                                ; preds = %2
  %8 = load ptr, ptr %3, align 8
  %9 = getelementptr inbounds %struct.Abc_Obj_t_, ptr %8, i32 0, i32 3
  %10 = load i32, ptr %9, align 4
  %11 = lshr i32 %10, 11
  %12 = and i32 %11, 1
  %13 = xor i32 %12, 1
  %14 = load i32, ptr %9, align 4
  %15 = and i32 %13, 1
  %16 = shl i32 %15, 11
  %17 = and i32 %14, -2049
  %18 = or i32 %17, %16
  store i32 %18, ptr %9, align 4
  br label %31

19:                                               ; preds = %2
  %20 = load ptr, ptr %3, align 8
  %21 = getelementptr inbounds %struct.Abc_Obj_t_, ptr %20, i32 0, i32 3
  %22 = load i32, ptr %21, align 4
  %23 = lshr i32 %22, 10
  %24 = and i32 %23, 1
  %25 = xor i32 %24, 1
  %26 = load i32, ptr %21, align 4
  %27 = and i32 %25, 1
  %28 = shl i32 %27, 10
  %29 = and i32 %26, -1025
  %30 = or i32 %29, %28
  store i32 %30, ptr %21, align 4
  br label %31

31:                                               ; preds = %19, %7
  ret void
}

; Function Attrs: nounwind uwtable
define internal ptr @Abc_NtkPo(ptr noundef %0, i32 noundef %1) #0 {
  %3 = alloca ptr, align 8
  %4 = alloca i32, align 4
  store ptr %0, ptr %3, align 8
  store i32 %1, ptr %4, align 4
  %5 = load ptr, ptr %3, align 8
  %6 = getelementptr inbounds %struct.Abc_Ntk_t_, ptr %5, i32 0, i32 7
  %7 = load ptr, ptr %6, align 8
  %8 = load i32, ptr %4, align 4
  %9 = call ptr @Vec_PtrEntry(ptr noundef %7, i32 noundef %8)
  ret ptr %9
}

; Function Attrs: nounwind uwtable
define internal i32 @Abc_ObjFaninC0(ptr noundef %0) #0 {
  %2 = alloca ptr, align 8
  store ptr %0, ptr %2, align 8
  %3 = load ptr, ptr %2, align 8
  %4 = getelementptr inbounds %struct.Abc_Obj_t_, ptr %3, i32 0, i32 3
  %5 = load i32, ptr %4, align 4
  %6 = lshr i32 %5, 10
  %7 = and i32 %6, 1
  ret i32 %7
}

; Function Attrs: nounwind uwtable
define internal ptr @Abc_ObjFanin0(ptr noundef %0) #0 {
  %2 = alloca ptr, align 8
  store ptr %0, ptr %2, align 8
  %3 = load ptr, ptr %2, align 8
  %4 = getelementptr inbounds %struct.Abc_Obj_t_, ptr %3, i32 0, i32 0
  %5 = load ptr, ptr %4, align 8
  %6 = getelementptr inbounds %struct.Abc_Ntk_t_, ptr %5, i32 0, i32 5
  %7 = load ptr, ptr %6, align 8
  %8 = getelementptr inbounds %struct.Vec_Ptr_t_, ptr %7, i32 0, i32 2
  %9 = load ptr, ptr %8, align 8
  %10 = load ptr, ptr %2, align 8
  %11 = getelementptr inbounds %struct.Abc_Obj_t_, ptr %10, i32 0, i32 4
  %12 = getelementptr inbounds %struct.Vec_Int_t_, ptr %11, i32 0, i32 2
  %13 = load ptr, ptr %12, align 8
  %14 = getelementptr inbounds i32, ptr %13, i64 0
  %15 = load i32, ptr %14, align 4
  %16 = sext i32 %15 to i64
  %17 = getelementptr inbounds ptr, ptr %9, i64 %16
  %18 = load ptr, ptr %17, align 8
  ret ptr %18
}

; Function Attrs: nounwind uwtable
define internal ptr @Abc_NtkCo(ptr noundef %0, i32 noundef %1) #0 {
  %3 = alloca ptr, align 8
  %4 = alloca i32, align 4
  store ptr %0, ptr %3, align 8
  store i32 %1, ptr %4, align 4
  %5 = load ptr, ptr %3, align 8
  %6 = getelementptr inbounds %struct.Abc_Ntk_t_, ptr %5, i32 0, i32 9
  %7 = load ptr, ptr %6, align 8
  %8 = load i32, ptr %4, align 4
  %9 = call ptr @Vec_PtrEntry(ptr noundef %7, i32 noundef %8)
  ret ptr %9
}

; Function Attrs: nounwind uwtable
define internal ptr @Abc_NtkPi(ptr noundef %0, i32 noundef %1) #0 {
  %3 = alloca ptr, align 8
  %4 = alloca i32, align 4
  store ptr %0, ptr %3, align 8
  store i32 %1, ptr %4, align 4
  %5 = load ptr, ptr %3, align 8
  %6 = getelementptr inbounds %struct.Abc_Ntk_t_, ptr %5, i32 0, i32 6
  %7 = load ptr, ptr %6, align 8
  %8 = load i32, ptr %4, align 4
  %9 = call ptr @Vec_PtrEntry(ptr noundef %7, i32 noundef %8)
  ret ptr %9
}

; Function Attrs: nounwind uwtable
define internal i32 @Abc_NtkPiNum(ptr noundef %0) #0 {
  %2 = alloca ptr, align 8
  store ptr %0, ptr %2, align 8
  %3 = load ptr, ptr %2, align 8
  %4 = getelementptr inbounds %struct.Abc_Ntk_t_, ptr %3, i32 0, i32 6
  %5 = load ptr, ptr %4, align 8
  %6 = call i32 @Vec_PtrSize(ptr noundef %5)
  ret i32 %6
}

; Function Attrs: nounwind uwtable
define internal i32 @Abc_NtkCoNum(ptr noundef %0) #0 {
  %2 = alloca ptr, align 8
  store ptr %0, ptr %2, align 8
  %3 = load ptr, ptr %2, align 8
  %4 = getelementptr inbounds %struct.Abc_Ntk_t_, ptr %3, i32 0, i32 9
  %5 = load ptr, ptr %4, align 8
  %6 = call i32 @Vec_PtrSize(ptr noundef %5)
  ret i32 %6
}

; Function Attrs: nounwind uwtable
define ptr @Abc_NtkInter(ptr noundef %0, ptr noundef %1, i32 noundef %2, i32 noundef %3) #0 {
  %5 = alloca ptr, align 8
  %6 = alloca ptr, align 8
  %7 = alloca ptr, align 8
  %8 = alloca i32, align 4
  %9 = alloca i32, align 4
  %10 = alloca ptr, align 8
  %11 = alloca ptr, align 8
  %12 = alloca ptr, align 8
  %13 = alloca ptr, align 8
  %14 = alloca ptr, align 8
  %15 = alloca i32, align 4
  store ptr %0, ptr %6, align 8
  store ptr %1, ptr %7, align 8
  store i32 %2, ptr %8, align 4
  store i32 %3, ptr %9, align 4
  %16 = load ptr, ptr %6, align 8
  %17 = call i32 @Abc_NtkCoNum(ptr noundef %16)
  %18 = load ptr, ptr %7, align 8
  %19 = call i32 @Abc_NtkCoNum(ptr noundef %18)
  %20 = icmp ne i32 %17, %19
  br i1 %20, label %21, label %22

21:                                               ; preds = %4
  call void (i32, ptr, ...) @Abc_Print(i32 noundef 1, ptr noundef @.str.103)
  store ptr null, ptr %5, align 8
  br label %142

22:                                               ; preds = %4
  %23 = load ptr, ptr %6, align 8
  %24 = call i32 @Abc_NtkCoNum(ptr noundef %23)
  %25 = icmp eq i32 %24, 1
  br i1 %25, label %26, label %32

26:                                               ; preds = %22
  %27 = load ptr, ptr %6, align 8
  %28 = load ptr, ptr %7, align 8
  %29 = load i32, ptr %8, align 4
  %30 = load i32, ptr %9, align 4
  %31 = call ptr @Abc_NtkInterOne(ptr noundef %27, ptr noundef %28, i32 noundef %29, i32 noundef %30)
  store ptr %31, ptr %5, align 8
  br label %142

32:                                               ; preds = %22
  %33 = call ptr @Abc_NtkAlloc(i32 noundef 3, i32 noundef 3, i32 noundef 1)
  store ptr %33, ptr %13, align 8
  %34 = load ptr, ptr %6, align 8
  %35 = getelementptr inbounds %struct.Abc_Ntk_t_, ptr %34, i32 0, i32 2
  %36 = load ptr, ptr %35, align 8
  %37 = call ptr @Extra_UtilStrsav(ptr noundef %36)
  %38 = load ptr, ptr %13, align 8
  %39 = getelementptr inbounds %struct.Abc_Ntk_t_, ptr %38, i32 0, i32 2
  store ptr %37, ptr %39, align 8
  store i32 0, ptr %15, align 4
  br label %40

40:                                               ; preds = %55, %32
  %41 = load i32, ptr %15, align 4
  %42 = load ptr, ptr %6, align 8
  %43 = call i32 @Abc_NtkPiNum(ptr noundef %42)
  %44 = icmp slt i32 %41, %43
  br i1 %44, label %45, label %49

45:                                               ; preds = %40
  %46 = load ptr, ptr %6, align 8
  %47 = load i32, ptr %15, align 4
  %48 = call ptr @Abc_NtkPi(ptr noundef %46, i32 noundef %47)
  store ptr %48, ptr %14, align 8
  br label %49

49:                                               ; preds = %45, %40
  %50 = phi i1 [ false, %40 ], [ true, %45 ]
  br i1 %50, label %51, label %58

51:                                               ; preds = %49
  %52 = load ptr, ptr %13, align 8
  %53 = load ptr, ptr %14, align 8
  %54 = call ptr @Abc_NtkDupObj(ptr noundef %52, ptr noundef %53, i32 noundef 1)
  br label %55

55:                                               ; preds = %51
  %56 = load i32, ptr %15, align 4
  %57 = add nsw i32 %56, 1
  store i32 %57, ptr %15, align 4
  br label %40, !llvm.loop !91

58:                                               ; preds = %49
  store i64 0, ptr @timeCnf, align 8
  store i64 0, ptr @timeSat, align 8
  store i64 0, ptr @timeInt, align 8
  store i32 0, ptr %15, align 4
  br label %59

59:                                               ; preds = %132, %58
  %60 = load i32, ptr %15, align 4
  %61 = load ptr, ptr %6, align 8
  %62 = call i32 @Abc_NtkCoNum(ptr noundef %61)
  %63 = icmp slt i32 %60, %62
  br i1 %63, label %64, label %68

64:                                               ; preds = %59
  %65 = load ptr, ptr %6, align 8
  %66 = load i32, ptr %15, align 4
  %67 = call ptr @Abc_NtkCo(ptr noundef %65, i32 noundef %66)
  store ptr %67, ptr %14, align 8
  br label %68

68:                                               ; preds = %64, %59
  %69 = phi i1 [ false, %59 ], [ true, %64 ]
  br i1 %69, label %70, label %135

70:                                               ; preds = %68
  %71 = load ptr, ptr %6, align 8
  %72 = load ptr, ptr %14, align 8
  %73 = call ptr @Abc_ObjFanin0(ptr noundef %72)
  %74 = load ptr, ptr %14, align 8
  %75 = call ptr @Abc_ObjName(ptr noundef %74)
  %76 = call ptr @Abc_NtkCreateCone(ptr noundef %71, ptr noundef %73, ptr noundef %75, i32 noundef 1)
  store ptr %76, ptr %10, align 8
  %77 = load ptr, ptr %14, align 8
  %78 = call i32 @Abc_ObjFaninC0(ptr noundef %77)
  %79 = icmp ne i32 %78, 0
  br i1 %79, label %80, label %83

80:                                               ; preds = %70
  %81 = load ptr, ptr %10, align 8
  %82 = call ptr @Abc_NtkPo(ptr noundef %81, i32 noundef 0)
  call void @Abc_ObjXorFaninC(ptr noundef %82, i32 noundef 0)
  br label %83

83:                                               ; preds = %80, %70
  %84 = load ptr, ptr %7, align 8
  %85 = load i32, ptr %15, align 4
  %86 = call ptr @Abc_NtkCo(ptr noundef %84, i32 noundef %85)
  store ptr %86, ptr %14, align 8
  %87 = load ptr, ptr %7, align 8
  %88 = load ptr, ptr %14, align 8
  %89 = call ptr @Abc_ObjFanin0(ptr noundef %88)
  %90 = load ptr, ptr %14, align 8
  %91 = call ptr @Abc_ObjName(ptr noundef %90)
  %92 = call ptr @Abc_NtkCreateCone(ptr noundef %87, ptr noundef %89, ptr noundef %91, i32 noundef 1)
  store ptr %92, ptr %11, align 8
  %93 = load ptr, ptr %14, align 8
  %94 = call i32 @Abc_ObjFaninC0(ptr noundef %93)
  %95 = icmp ne i32 %94, 0
  br i1 %95, label %96, label %99

96:                                               ; preds = %83
  %97 = load ptr, ptr %11, align 8
  %98 = call ptr @Abc_NtkPo(ptr noundef %97, i32 noundef 0)
  call void @Abc_ObjXorFaninC(ptr noundef %98, i32 noundef 0)
  br label %99

99:                                               ; preds = %96, %83
  %100 = load ptr, ptr %10, align 8
  %101 = call i32 @Abc_NtkNodeNum(ptr noundef %100)
  %102 = icmp eq i32 %101, 0
  br i1 %102, label %103, label %106

103:                                              ; preds = %99
  %104 = load ptr, ptr %10, align 8
  %105 = call ptr @Abc_NtkDup(ptr noundef %104)
  store ptr %105, ptr %12, align 8
  br label %121

106:                                              ; preds = %99
  %107 = load ptr, ptr %11, align 8
  %108 = call i32 @Abc_NtkNodeNum(ptr noundef %107)
  %109 = icmp eq i32 %108, 0
  br i1 %109, label %110, label %115

110:                                              ; preds = %106
  %111 = load ptr, ptr %11, align 8
  %112 = call ptr @Abc_NtkDup(ptr noundef %111)
  store ptr %112, ptr %12, align 8
  %113 = load ptr, ptr %12, align 8
  %114 = call ptr @Abc_NtkPo(ptr noundef %113, i32 noundef 0)
  call void @Abc_ObjXorFaninC(ptr noundef %114, i32 noundef 0)
  br label %120

115:                                              ; preds = %106
  %116 = load ptr, ptr %10, align 8
  %117 = load ptr, ptr %11, align 8
  %118 = load i32, ptr %9, align 4
  %119 = call ptr @Abc_NtkInterOne(ptr noundef %116, ptr noundef %117, i32 noundef 0, i32 noundef %118)
  store ptr %119, ptr %12, align 8
  br label %120

120:                                              ; preds = %115, %110
  br label %121

121:                                              ; preds = %120, %103
  %122 = load ptr, ptr %12, align 8
  %123 = icmp ne ptr %122, null
  br i1 %123, label %124, label %129

124:                                              ; preds = %121
  %125 = load ptr, ptr %13, align 8
  %126 = load ptr, ptr %12, align 8
  %127 = call i32 @Abc_NtkAppend(ptr noundef %125, ptr noundef %126, i32 noundef 1)
  %128 = load ptr, ptr %12, align 8
  call void @Abc_NtkDelete(ptr noundef %128)
  br label %129

129:                                              ; preds = %124, %121
  %130 = load ptr, ptr %10, align 8
  call void @Abc_NtkDelete(ptr noundef %130)
  %131 = load ptr, ptr %11, align 8
  call void @Abc_NtkDelete(ptr noundef %131)
  br label %132

132:                                              ; preds = %129
  %133 = load i32, ptr %15, align 4
  %134 = add nsw i32 %133, 1
  store i32 %134, ptr %15, align 4
  br label %59, !llvm.loop !92

135:                                              ; preds = %68
  %136 = load ptr, ptr %13, align 8
  %137 = call i32 @Abc_NtkCheck(ptr noundef %136)
  %138 = icmp ne i32 %137, 0
  br i1 %138, label %140, label %139

139:                                              ; preds = %135
  call void (i32, ptr, ...) @Abc_Print(i32 noundef 1, ptr noundef @.str.104)
  br label %140

140:                                              ; preds = %139, %135
  %141 = load ptr, ptr %13, align 8
  store ptr %141, ptr %5, align 8
  br label %142

142:                                              ; preds = %140, %26, %21
  %143 = load ptr, ptr %5, align 8
  ret ptr %143
}