; Function Attrs: nounwind uwtable
define ptr @Abc_NtkInter(ptr noundef %0, ptr noundef %1, i32 noundef %2, i32 noundef %3) local_unnamed_addr #1 {
  %5 = getelementptr i8, ptr %0, i64 64
  %.val71 = load ptr, ptr %5, align 8
  %6 = getelementptr i8, ptr %.val71, i64 4
  %.val71.val = load i32, ptr %6, align 4
  %7 = getelementptr i8, ptr %1, i64 64
  %.val70 = load ptr, ptr %7, align 8
  %8 = getelementptr i8, ptr %.val70, i64 4
  %.val70.val = load i32, ptr %8, align 4
  %.not = icmp eq i32 %.val71.val, %.val70.val
  br i1 %.not, label %10, label %9

9:                                                ; preds = %4
  tail call void (i32, ptr, ...) @Abc_Print(i32 poison, ptr noundef nonnull @.str.103)
  br label %99

10:                                               ; preds = %4
  %11 = icmp eq i32 %.val71.val, 1
  br i1 %11, label %12, label %14

12:                                               ; preds = %10
  %13 = tail call ptr @Abc_NtkInterOne(ptr noundef nonnull %0, ptr noundef nonnull %1, i32 noundef %2, i32 noundef %3)
  br label %99

14:                                               ; preds = %10
  %15 = tail call ptr @Abc_NtkAlloc(i32 noundef 3, i32 noundef 3, i32 noundef 1) #19
  %16 = getelementptr inbounds nuw i8, ptr %0, i64 8
  %17 = load ptr, ptr %16, align 8
  %18 = tail call ptr @Extra_UtilStrsav(ptr noundef %17) #19
  %19 = getelementptr inbounds nuw i8, ptr %15, i64 8
  store ptr %18, ptr %19, align 8
  %20 = getelementptr i8, ptr %0, i64 40
  %.val6778 = load ptr, ptr %20, align 8
  %21 = getelementptr i8, ptr %.val6778, i64 4
  %.val67.val79 = load i32, ptr %21, align 4
  %22 = icmp sgt i32 %.val67.val79, 0
  br i1 %22, label %.lr.ph, label %.critedge

.lr.ph:                                           ; preds = %14, %.lr.ph
  %indvars.iv = phi i64 [ %indvars.iv.next, %.lr.ph ], [ 0, %14 ]
  %.val6781 = phi ptr [ %.val67, %.lr.ph ], [ %.val6778, %14 ]
  %23 = getelementptr i8, ptr %.val6781, i64 8
  %.val74.val = load ptr, ptr %23, align 8
  %24 = getelementptr inbounds nuw ptr, ptr %.val74.val, i64 %indvars.iv
  %25 = load ptr, ptr %24, align 8
  %26 = tail call ptr @Abc_NtkDupObj(ptr noundef %15, ptr noundef %25, i32 noundef 1) #19
  %indvars.iv.next = add nuw nsw i64 %indvars.iv, 1
  %.val67 = load ptr, ptr %20, align 8
  %27 = getelementptr i8, ptr %.val67, i64 4
  %.val67.val = load i32, ptr %27, align 4
  %28 = sext i32 %.val67.val to i64
  %29 = icmp slt i64 %indvars.iv.next, %28
  br i1 %29, label %.lr.ph, label %.critedge, !llvm.loop !93

.critedge:                                        ; preds = %.lr.ph, %14
  store i64 0, ptr @timeCnf, align 8
  store i64 0, ptr @timeSat, align 8
  store i64 0, ptr @timeInt, align 8
  %.val6882 = load ptr, ptr %5, align 8
  %30 = getelementptr i8, ptr %.val6882, i64 4
  %.val68.val83 = load i32, ptr %30, align 4
  %31 = icmp sgt i32 %.val68.val83, 0
  br i1 %31, label %.lr.ph86, label %.critedge2

.lr.ph86:                                         ; preds = %.critedge, %93
  %indvars.iv88 = phi i64 [ %indvars.iv.next89, %93 ], [ 0, %.critedge ]
  %.val6885 = phi ptr [ %.val68, %93 ], [ %.val6882, %.critedge ]
  %32 = getelementptr i8, ptr %.val6885, i64 8
  %.val73.val = load ptr, ptr %32, align 8
  %33 = getelementptr inbounds nuw ptr, ptr %.val73.val, i64 %indvars.iv88
  %34 = load ptr, ptr %33, align 8
  %.val58 = load ptr, ptr %34, align 8
  %35 = getelementptr i8, ptr %34, i64 32
  %.val59 = load ptr, ptr %35, align 8
  %36 = getelementptr i8, ptr %.val58, i64 32
  %.val58.val = load ptr, ptr %36, align 8
  %.val59.val = load i32, ptr %.val59, align 4
  %37 = getelementptr i8, ptr %.val58.val, i64 8
  %.val58.val.val = load ptr, ptr %37, align 8
  %38 = sext i32 %.val59.val to i64
  %39 = getelementptr inbounds ptr, ptr %.val58.val.val, i64 %38
  %40 = load ptr, ptr %39, align 8
  %41 = tail call ptr @Abc_ObjName(ptr noundef nonnull %34) #19
  %42 = tail call ptr @Abc_NtkCreateCone(ptr noundef nonnull %0, ptr noundef %40, ptr noundef %41, i32 noundef 1) #19
  %43 = getelementptr i8, ptr %34, i64 20
  %.val60 = load i32, ptr %43, align 4
  %44 = and i32 %.val60, 1024
  %.not54 = icmp eq i32 %44, 0
  br i1 %.not54, label %52, label %45

45:                                               ; preds = %.lr.ph86
  %46 = getelementptr i8, ptr %42, i64 48
  %.val64 = load ptr, ptr %46, align 8
  %47 = getelementptr i8, ptr %.val64, i64 8
  %.val64.val = load ptr, ptr %47, align 8
  %48 = load ptr, ptr %.val64.val, align 8
  %49 = getelementptr inbounds nuw i8, ptr %48, i64 20
  %50 = load i32, ptr %49, align 4
  %51 = xor i32 %50, 1024
  store i32 %51, ptr %49, align 4
  br label %52

52:                                               ; preds = %45, %.lr.ph86
  %.val72 = load ptr, ptr %7, align 8
  %53 = getelementptr i8, ptr %.val72, i64 8
  %.val72.val = load ptr, ptr %53, align 8
  %54 = getelementptr inbounds nuw ptr, ptr %.val72.val, i64 %indvars.iv88
  %55 = load ptr, ptr %54, align 8
  %.val = load ptr, ptr %55, align 8
  %56 = getelementptr i8, ptr %55, i64 32
  %.val57 = load ptr, ptr %56, align 8
  %57 = getelementptr i8, ptr %.val, i64 32
  %.val.val = load ptr, ptr %57, align 8
  %.val57.val = load i32, ptr %.val57, align 4
  %58 = getelementptr i8, ptr %.val.val, i64 8
  %.val.val.val = load ptr, ptr %58, align 8
  %59 = sext i32 %.val57.val to i64
  %60 = getelementptr inbounds ptr, ptr %.val.val.val, i64 %59
  %61 = load ptr, ptr %60, align 8
  %62 = tail call ptr @Abc_ObjName(ptr noundef nonnull %55) #19
  %63 = tail call ptr @Abc_NtkCreateCone(ptr noundef %1, ptr noundef %61, ptr noundef %62, i32 noundef 1) #19
  %64 = getelementptr i8, ptr %55, i64 20
  %.val61 = load i32, ptr %64, align 4
  %65 = and i32 %.val61, 1024
  %.not55 = icmp eq i32 %65, 0
  br i1 %.not55, label %73, label %66

66:                                               ; preds = %52
  %67 = getelementptr i8, ptr %63, i64 48
  %.val63 = load ptr, ptr %67, align 8
  %68 = getelementptr i8, ptr %.val63, i64 8
  %.val63.val = load ptr, ptr %68, align 8
  %69 = load ptr, ptr %.val63.val, align 8
  %70 = getelementptr inbounds nuw i8, ptr %69, i64 20
  %71 = load i32, ptr %70, align 4
  %72 = xor i32 %71, 1024
  store i32 %72, ptr %70, align 4
  br label %73

73:                                               ; preds = %66, %52
  %74 = getelementptr i8, ptr %42, i64 124
  %.val66 = load i32, ptr %74, align 4
  %75 = icmp eq i32 %.val66, 0
  br i1 %75, label %76, label %78

76:                                               ; preds = %73
  %77 = tail call ptr @Abc_NtkDup(ptr noundef nonnull %42) #19
  br label %90

78:                                               ; preds = %73
  %79 = getelementptr i8, ptr %63, i64 124
  %.val65 = load i32, ptr %79, align 4
  %80 = icmp eq i32 %.val65, 0
  br i1 %80, label %.thread, label %88

.thread:                                          ; preds = %78
  %81 = tail call ptr @Abc_NtkDup(ptr noundef nonnull %63) #19
  %82 = getelementptr i8, ptr %81, i64 48
  %.val62 = load ptr, ptr %82, align 8
  %83 = getelementptr i8, ptr %.val62, i64 8
  %.val62.val = load ptr, ptr %83, align 8
  %84 = load ptr, ptr %.val62.val, align 8
  %85 = getelementptr inbounds nuw i8, ptr %84, i64 20
  %86 = load i32, ptr %85, align 4
  %87 = xor i32 %86, 1024
  store i32 %87, ptr %85, align 4
  br label %91

88:                                               ; preds = %78
  %89 = tail call ptr @Abc_NtkInterOne(ptr noundef nonnull %42, ptr noundef nonnull %63, i32 noundef 0, i32 noundef %3)
  br label %90

90:                                               ; preds = %88, %76
  %.052 = phi ptr [ %77, %76 ], [ %89, %88 ]
  %.not56 = icmp eq ptr %.052, null
  br i1 %.not56, label %93, label %91

91:                                               ; preds = %.thread, %90
  %.05277 = phi ptr [ %81, %.thread ], [ %.052, %90 ]
  %92 = tail call i32 @Abc_NtkAppend(ptr noundef %15, ptr noundef nonnull %.05277, i32 noundef 1) #19
  tail call void @Abc_NtkDelete(ptr noundef nonnull %.05277) #19
  br label %93

93:                                               ; preds = %91, %90
  tail call void @Abc_NtkDelete(ptr noundef nonnull %42) #19
  tail call void @Abc_NtkDelete(ptr noundef %63) #19
  %indvars.iv.next89 = add nuw nsw i64 %indvars.iv88, 1
  %.val68 = load ptr, ptr %5, align 8
  %94 = getelementptr i8, ptr %.val68, i64 4
  %.val68.val = load i32, ptr %94, align 4
  %95 = sext i32 %.val68.val to i64
  %96 = icmp slt i64 %indvars.iv.next89, %95
  br i1 %96, label %.lr.ph86, label %.critedge2, !llvm.loop !94

.critedge2:                                       ; preds = %93, %.critedge
  %97 = tail call i32 @Abc_NtkCheck(ptr noundef %15) #19
  %.not53 = icmp eq i32 %97, 0
  br i1 %.not53, label %98, label %99

98:                                               ; preds = %.critedge2
  tail call void (i32, ptr, ...) @Abc_Print(i32 poison, ptr noundef nonnull @.str.104)
  br label %99

99:                                               ; preds = %.critedge2, %98, %12, %9
  %.051 = phi ptr [ null, %9 ], [ %13, %12 ], [ %15, %98 ], [ %15, %.critedge2 ]
  ret ptr %.051
}